; ModuleID = 'source-C-CXX/36/463.c'
source_filename = "source-C-CXX/36/463.c"
target datalayout = "e-m:e-p270:32:32-p271:32:32-p272:64:64-i64:64-f80:128-n8:16:32:64-S128"
target triple = "x86_64-pc-linux-gnu"

@.str = private unnamed_addr constant [3 x i8] c"%d\00", align 1
@.str.1 = private unnamed_addr constant [4 x i8] c"%c\0A\00", align 1
@.str.2 = private unnamed_addr constant [3 x i8] c"no\00", align 1

; Function Attrs: nounwind sspstrong uwtable
define dso_local void @main() local_unnamed_addr #0 {
  %1 = alloca i32, align 4
  %2 = alloca [10 x i8], align 1
  %3 = bitcast i32* %1 to i8*
  call void @llvm.lifetime.start.p0i8(i64 4, i8* nonnull %3) #5
  %4 = getelementptr inbounds [10 x i8], [10 x i8]* %2, i64 0, i64 0
  call void @llvm.lifetime.start.p0i8(i64 10, i8* nonnull %4) #5
  %5 = call i32 (i8*, ...) @__isoc99_scanf(i8* getelementptr inbounds ([3 x i8], [3 x i8]* @.str, i64 0, i64 0), i32* nonnull %1)
  %6 = call i32 (i8*, ...) bitcast (i32 (...)* @gets to i32 (i8*, ...)*)(i8* nonnull %4) #5
  %7 = load i32, i32* %1, align 4, !tbaa !5
  %8 = icmp sgt i32 %7, 0
  br i1 %8, label %9, label %59

9:                                                ; preds = %0, %55
  %10 = phi i32 [ %56, %55 ], [ 0, %0 ]
  %11 = call noalias align 16 dereferenceable_or_null(10000) i8* @malloc(i64 10000) #5
  %12 = call i32 (i8*, ...) bitcast (i32 (...)* @gets to i32 (i8*, ...)*)(i8* %11) #5
  %13 = load i8, i8* %11, align 16, !tbaa !9
  %14 = icmp eq i8 %13, 0
  br i1 %14, label %39, label %15

15:                                               ; preds = %9, %34
  %16 = phi i64 [ %35, %34 ], [ 0, %9 ]
  %17 = phi i8 [ %37, %34 ], [ %13, %9 ]
  %18 = phi i8* [ %36, %34 ], [ %11, %9 ]
  %19 = getelementptr inbounds i8, i8* %18, i64 1
  %20 = load i8, i8* %19, align 1, !tbaa !9
  %21 = icmp eq i8 %20, 0
  br i1 %21, label %34, label %22

22:                                               ; preds = %15, %29
  %23 = phi i64 [ %30, %29 ], [ 1, %15 ]
  %24 = phi i8 [ %32, %29 ], [ %20, %15 ]
  %25 = icmp eq i8 %24, %17
  br i1 %25, label %26, label %29

26:                                               ; preds = %22
  store i8 48, i8* %18, align 1, !tbaa !9
  %27 = add nuw nsw i64 %23, %16
  %28 = getelementptr inbounds i8, i8* %11, i64 %27
  store i8 48, i8* %28, align 1, !tbaa !9
  br label %29

29:                                               ; preds = %26, %22
  %30 = add nuw i64 %23, 1
  %31 = getelementptr inbounds i8, i8* %18, i64 %30
  %32 = load i8, i8* %31, align 1, !tbaa !9
  %33 = icmp eq i8 %32, 0
  br i1 %33, label %34, label %22, !llvm.loop !10

34:                                               ; preds = %29, %15
  %35 = add nuw i64 %16, 1
  %36 = getelementptr inbounds i8, i8* %11, i64 %35
  %37 = load i8, i8* %36, align 1, !tbaa !9
  %38 = icmp eq i8 %37, 0
  br i1 %38, label %39, label %15, !llvm.loop !12

39:                                               ; preds = %34, %9
  br label %40

40:                                               ; preds = %39, %44
  %41 = phi i64 [ %45, %44 ], [ 0, %39 ]
  %42 = getelementptr inbounds i8, i8* %11, i64 %41
  %43 = load i8, i8* %42, align 1, !tbaa !9
  switch i8 %43, label %46 [
    i8 0, label %53
    i8 48, label %44
  ]

44:                                               ; preds = %40
  %45 = add nuw i64 %41, 1
  br label %40, !llvm.loop !13

46:                                               ; preds = %40
  %47 = and i64 %41, 4294967295
  %48 = getelementptr inbounds i8, i8* %11, i64 %47
  %49 = sext i8 %43 to i32
  %50 = call i32 (i8*, ...) @printf(i8* nonnull dereferenceable(1) getelementptr inbounds ([4 x i8], [4 x i8]* @.str.1, i64 0, i64 0), i32 %49)
  %51 = load i8, i8* %48, align 1, !tbaa !9
  %52 = icmp eq i8 %51, 0
  br i1 %52, label %53, label %55

53:                                               ; preds = %40, %46
  %54 = call i32 (i8*, ...) @printf(i8* nonnull dereferenceable(1) getelementptr inbounds ([3 x i8], [3 x i8]* @.str.2, i64 0, i64 0))
  br label %55

55:                                               ; preds = %46, %53
  %56 = add nuw nsw i32 %10, 1
  %57 = load i32, i32* %1, align 4, !tbaa !5
  %58 = icmp slt i32 %56, %57
  br i1 %58, label %9, label %59, !llvm.loop !14

59:                                               ; preds = %55, %0
  call void @llvm.lifetime.end.p0i8(i64 10, i8* nonnull %4) #5
  call void @llvm.lifetime.end.p0i8(i64 4, i8* nonnull %3) #5
  ret void
}

; Function Attrs: argmemonly mustprogress nofree nosync nounwind willreturn
declare void @llvm.lifetime.start.p0i8(i64 immarg, i8* nocapture) #1

; Function Attrs: nofree nounwind
declare noundef i32 @__isoc99_scanf(i8* nocapture noundef readonly, ...) local_unnamed_addr #2

declare i32 @gets(...) local_unnamed_addr #3

; Function Attrs: inaccessiblememonly mustprogress nofree nounwind willreturn
declare noalias noundef align 16 i8* @malloc(i64 noundef) local_unnamed_addr #4

; Function Attrs: nofree nounwind
declare noundef i32 @printf(i8* nocapture noundef readonly, ...) local_unnamed_addr #2

; Function Attrs: argmemonly mustprogress nofree nosync nounwind willreturn
declare void @llvm.lifetime.end.p0i8(i64 immarg, i8* nocapture) #1


!llvm.module.flags = !{!0, !1, !2, !3}
!llvm.ident = !{!4}

!0 = !{i32 1, !"wchar_size", i32 4}
!1 = !{i32 7, !"PIC Level", i32 2}
!2 = !{i32 7, !"PIE Level", i32 2}
!3 = !{i32 7, !"uwtable", i32 1}
!4 = !{!"clang version 13.0.0"}
!5 = !{!6, !6, i64 0}
!6 = !{!"int", !7, i64 0}
!7 = !{!"omnipotent char", !8, i64 0}
!8 = !{!"Simple C/C++ TBAA"}
!9 = !{!7, !7, i64 0}
!10 = distinct !{!10, !11}
!11 = !{!"llvm.loop.mustprogress"}
!12 = distinct !{!12, !11}
!13 = distinct !{!13, !11}
!14 = distinct !{!14, !11}
